Certificate:
    Data:
        Version: 3 (0x2)
        Serial Number: 4096 (0x1000)
    Signature Algorithm: ecdsa-with-SHA256
        Issuer: CN=sros2testCA
        Validity
            Not Before: Dec  2 10:11:21 2018 GMT
            Not After : Nov 29 10:11:21 2028 GMT
        Subject: CN=a_1
        Subject Public Key Info:
            Public Key Algorithm: id-ecPublicKey
                Public-Key: (256 bit)
                pub: 
                    04:d4:4c:c6:b1:85:81:24:0b:9f:3f:68:3e:6e:02:
                    91:b6:a6:50:5d:bc:3b:59:08:4d:90:69:79:6d:12:
                    ac:72:94:3e:1f:32:3f:41:06:52:52:44:5d:51:23:
                    ea:11:b8:6d:2e:32:a7:4b:e3:83:4e:8e:9f:b4:96:
                    7f:5b:5e:46:b5
                ASN1 OID: prime256v1
                NIST CURVE: P-256
        X509v3 extensions:
            X509v3 Basic Constraints: 
                CA:FALSE
    Signature Algorithm: ecdsa-with-SHA256
         30:45:02:20:39:4f:41:f2:a4:b5:50:a1:27:f6:fa:21:78:12:
         f0:3f:78:a1:17:4e:02:e1:8d:ea:4f:40:c1:d5:57:ff:aa:6a:
         02:21:00:a8:53:dd:19:94:62:9f:24:15:ed:a9:da:5b:71:ce:
         bc:ac:1d:79:2f:44:fc:0a:b7:4a:ae:24:57:4a:d8:62:c6
-----BEGIN CERTIFICATE-----
MIIBIDCBx6ADAgECAgIQADAKBggqhkjOPQQDAjAWMRQwEgYDVQQDDAtzcm9zMnRl
c3RDQTAeFw0xODEyMDIxMDExMjFaFw0yODExMjkxMDExMjFaMA4xDDAKBgNVBAMM
A2FfMTBZMBMGByqGSM49AgEGCCqGSM49AwEHA0IABNRMxrGFgSQLnz9oPm4Ckbam
UF28O1kITZBpeW0SrHKUPh8yP0EGUlJEXVEj6hG4bS4yp0vjg06On7SWf1teRrWj
DTALMAkGA1UdEwQCMAAwCgYIKoZIzj0EAwIDSAAwRQIgOU9B8qS1UKEn9voheBLw
P3ihF04C4Y3qT0DB1Vf/qmoCIQCoU90ZlGKfJBXtqdpbcc68rB15L0T8CrdKriRX
Sthixg==
-----END CERTIFICATE-----
