Certificate:
    Data:
        Version: 3 (0x2)
        Serial Number: 4097 (0x1001)
    Signature Algorithm: ecdsa-with-SHA256
        Issuer: CN=sros2testCA
        Validity
            Not Before: Dec  2 10:11:25 2018 GMT
            Not After : Nov 29 10:11:25 2028 GMT
        Subject: CN=b_1
        Subject Public Key Info:
            Public Key Algorithm: id-ecPublicKey
                Public-Key: (256 bit)
                pub: 
                    04:a3:f4:80:e7:a2:ac:9c:12:3b:9a:e8:ce:47:7b:
                    5e:e5:90:42:9d:d7:e1:e1:85:9c:6f:c3:52:d7:69:
                    23:48:9e:36:ec:b3:d0:5a:db:92:2a:da:0f:7d:f9:
                    3b:34:e3:aa:05:fe:fb:ff:f7:e0:11:ba:66:dc:30:
                    ab:56:8a:80:25
                ASN1 OID: prime256v1
                NIST CURVE: P-256
        X509v3 extensions:
            X509v3 Basic Constraints: 
                CA:FALSE
    Signature Algorithm: ecdsa-with-SHA256
         30:45:02:21:00:f7:ba:f8:99:3c:ff:f9:2f:02:16:2b:bd:96:
         b1:ac:44:67:10:1a:96:d3:59:c4:1f:01:9c:6d:91:51:95:7a:
         90:02:20:57:43:1e:e8:72:eb:ae:33:4c:51:be:af:1a:5f:00:
         bd:07:ab:86:3f:af:3f:0b:da:3c:7e:ce:cd:23:81:bb:e4
-----BEGIN CERTIFICATE-----
MIIBIDCBx6ADAgECAgIQATAKBggqhkjOPQQDAjAWMRQwEgYDVQQDDAtzcm9zMnRl
c3RDQTAeFw0xODEyMDIxMDExMjVaFw0yODExMjkxMDExMjVaMA4xDDAKBgNVBAMM
A2JfMTBZMBMGByqGSM49AgEGCCqGSM49AwEHA0IABKP0gOeirJwSO5rozkd7XuWQ
Qp3X4eGFnG/DUtdpI0ieNuyz0FrbkiraD335OzTjqgX++//34BG6Ztwwq1aKgCWj
DTALMAkGA1UdEwQCMAAwCgYIKoZIzj0EAwIDSAAwRQIhAPe6+Jk8//kvAhYrvZax
rERnEBqW01nEHwGcbZFRlXqQAiBXQx7ocuuuM0xRvq8aXwC9B6uGP68/C9o8fs7N
I4G75A==
-----END CERTIFICATE-----
